
ppc32_microcode:     file format elf32-powerpc


Disassembly of section .text:

fff00000 <.text>:
	...
fff00100:	38 60 0c 00 	li      r3,3072
fff00104:	3c 80 ff f0 	lis     r4,-16
fff00108:	38 84 0c 00 	addi    r4,r4,3072
fff0010c:	38 a0 00 74 	li      r5,116
fff00110:	48 00 2e f1 	bl      0xfff03000
fff00114:	38 60 05 00 	li      r3,1280
fff00118:	3c 80 ff f0 	lis     r4,-16
fff0011c:	38 84 05 00 	addi    r4,r4,1280
fff00120:	38 a0 00 04 	li      r5,4
fff00124:	48 00 2e dd 	bl      0xfff03000
fff00128:	38 60 09 00 	li      r3,2304
fff0012c:	3c 80 ff f0 	lis     r4,-16
fff00130:	38 84 09 00 	addi    r4,r4,2304
fff00134:	38 a0 00 04 	li      r5,4
fff00138:	48 00 2e c9 	bl      0xfff03000
fff0013c:	48 00 37 2d 	bl      0xfff03868
fff00140:	60 00 00 00 	nop
	...
fff00500:	4c 00 00 64 	rfi
	...
fff00900:	4c 00 00 64 	rfi
	...
fff00c00:	7d 51 43 a6 	mtsprg  1,r10
fff00c04:	3d 40 00 00 	lis     r10,0
fff00c08:	39 4a 40 00 	addi    r10,r10,16384
fff00c0c:	91 0a 00 00 	stw     r8,0(r10)
fff00c10:	91 2a 00 04 	stw     r9,4(r10)
fff00c14:	7d 11 42 a6 	mfsprg  r8,1
fff00c18:	91 0a 00 08 	stw     r8,8(r10)
fff00c1c:	7d 28 02 a6 	mflr    r9
fff00c20:	91 2a 00 0c 	stw     r9,12(r10)
fff00c24:	7d 01 02 a6 	mfxer   r8
fff00c28:	91 0a 00 10 	stw     r8,16(r10)
fff00c2c:	7d 20 00 26 	mfcr    r9
fff00c30:	91 2a 00 14 	stw     r9,20(r10)
fff00c34:	3d 00 ff f0 	lis     r8,-16
fff00c38:	39 08 34 3c 	addi    r8,r8,13372
fff00c3c:	7d 08 03 a6 	mtlr    r8
fff00c40:	4e 80 00 21 	blrl
fff00c44:	3d 40 00 00 	lis     r10,0
fff00c48:	39 4a 40 00 	addi    r10,r10,16384
fff00c4c:	81 0a 00 14 	lwz     r8,20(r10)
fff00c50:	7d 0f f1 20 	mtcr    r8
fff00c54:	81 2a 00 10 	lwz     r9,16(r10)
fff00c58:	7d 21 03 a6 	mtxer   r9
fff00c5c:	81 0a 00 0c 	lwz     r8,12(r10)
fff00c60:	7d 08 03 a6 	mtlr    r8
fff00c64:	81 0a 00 00 	lwz     r8,0(r10)
fff00c68:	81 2a 00 04 	lwz     r9,4(r10)
fff00c6c:	81 4a 00 08 	lwz     r10,8(r10)
fff00c70:	4c 00 00 64 	rfi
	...
fff03000:	8b c4 00 00 	lbz     r30,0(r4)
fff03004:	9b c3 00 00 	stb     r30,0(r3)
fff03008:	38 63 00 01 	addi    r3,r3,1
fff0300c:	38 84 00 01 	addi    r4,r4,1
fff03010:	38 a5 ff ff 	addi    r5,r5,-1
fff03014:	2c 05 00 00 	cmpwi   r5,0
fff03018:	40 82 ff e8 	bne+    0xfff03000
fff0301c:	4e 80 00 20 	blr
fff03020:	7c 69 03 a6 	mtctr   r3
fff03024:	38 60 00 02 	li      r3,2
fff03028:	38 80 00 00 	li      r4,0
fff0302c:	38 a0 00 00 	li      r5,0
fff03030:	7c 8f f1 20 	mtcr    r4
fff03034:	7c 81 03 a6 	mtxer   r4
fff03038:	4e 80 04 21 	bctrl
fff0303c:	4e 80 00 20 	blr
fff03040:	88 04 00 00 	lbz     r0,0(r4)
fff03044:	7c 00 07 75 	extsb.  r0,r0
fff03048:	4d 82 00 20 	beqlr   
fff0304c:	7c 69 1b 78 	mr      r9,r3
fff03050:	98 09 00 00 	stb     r0,0(r9)
fff03054:	39 29 00 01 	addi    r9,r9,1
fff03058:	8c 04 00 01 	lbzu    r0,1(r4)
fff0305c:	7c 00 07 75 	extsb.  r0,r0
fff03060:	40 82 ff f0 	bne+    0xfff03050
fff03064:	4e 80 00 20 	blr
fff03068:	7c a0 2b 79 	mr.     r0,r5
fff0306c:	7c 09 03 a6 	mtctr   r0
fff03070:	4c 81 00 20 	blelr   
fff03074:	88 04 00 00 	lbz     r0,0(r4)
fff03078:	39 60 00 00 	li      r11,0
fff0307c:	98 03 00 00 	stb     r0,0(r3)
fff03080:	88 04 00 00 	lbz     r0,0(r4)
fff03084:	2f 80 00 00 	cmpwi   cr7,r0,0
fff03088:	40 be 00 1c 	bne+    cr7,0xfff030a4
fff0308c:	4e 80 00 20 	blr
fff03090:	7c 0b 20 ae 	lbzx    r0,r11,r4
fff03094:	7c 0b 19 ae 	stbx    r0,r11,r3
fff03098:	7d 2b 20 ae 	lbzx    r9,r11,r4
fff0309c:	2f 89 00 00 	cmpwi   cr7,r9,0
fff030a0:	4d 9e 00 20 	beqlr   cr7
fff030a4:	39 6b 00 01 	addi    r11,r11,1
fff030a8:	42 00 ff e8 	bdnz+   0xfff03090
fff030ac:	4e 80 00 20 	blr
fff030b0:	88 03 00 00 	lbz     r0,0(r3)
fff030b4:	7c 69 1b 78 	mr      r9,r3
fff030b8:	38 60 00 00 	li      r3,0
fff030bc:	2f 80 00 00 	cmpwi   cr7,r0,0
fff030c0:	4d 9e 00 20 	beqlr   cr7
fff030c4:	38 63 00 01 	addi    r3,r3,1
fff030c8:	7c 03 48 ae 	lbzx    r0,r3,r9
fff030cc:	2f 80 00 00 	cmpwi   cr7,r0,0
fff030d0:	40 9e ff f4 	bne+    cr7,0xfff030c4
fff030d4:	4e 80 00 20 	blr
fff030d8:	7c 08 02 a6 	mflr    r0
fff030dc:	94 21 ff c0 	stwu    r1,-64(r1)
fff030e0:	93 a1 00 34 	stw     r29,52(r1)
fff030e4:	7c 7d 1b 78 	mr      r29,r3
fff030e8:	93 c1 00 38 	stw     r30,56(r1)
fff030ec:	7c 9e 23 78 	mr      r30,r4
fff030f0:	93 81 00 30 	stw     r28,48(r1)
fff030f4:	93 e1 00 3c 	stw     r31,60(r1)
fff030f8:	90 01 00 44 	stw     r0,68(r1)
fff030fc:	88 04 00 00 	lbz     r0,0(r4)
fff03100:	91 21 00 28 	stw     r9,40(r1)
fff03104:	39 21 00 48 	addi    r9,r1,72
fff03108:	7c 04 07 75 	extsb.  r4,r0
fff0310c:	38 00 00 02 	li      r0,2
fff03110:	98 01 00 08 	stb     r0,8(r1)
fff03114:	38 01 00 10 	addi    r0,r1,16
fff03118:	90 a1 00 18 	stw     r5,24(r1)
fff0311c:	90 c1 00 1c 	stw     r6,28(r1)
fff03120:	90 e1 00 20 	stw     r7,32(r1)
fff03124:	91 01 00 24 	stw     r8,36(r1)
fff03128:	91 41 00 2c 	stw     r10,44(r1)
fff0312c:	91 21 00 0c 	stw     r9,12(r1)
fff03130:	90 01 00 10 	stw     r0,16(r1)
fff03134:	41 82 00 8c 	beq-    0xfff031c0
fff03138:	3d 20 ff f0 	lis     r9,-16
fff0313c:	3b 89 42 20 	addi    r28,r9,16928
fff03140:	48 00 00 1c 	b       0xfff0315c
fff03144:	54 84 06 3e 	clrlwi  r4,r4,24
fff03148:	7f a3 eb 78 	mr      r3,r29
fff0314c:	48 00 06 7d 	bl      0xfff037c8
fff03150:	8c 1e 00 01 	lbzu    r0,1(r30)
fff03154:	7c 04 07 75 	extsb.  r4,r0
fff03158:	41 82 00 68 	beq-    0xfff031c0
fff0315c:	2f 84 00 25 	cmpwi   cr7,r4,37
fff03160:	40 9e ff e4 	bne+    cr7,0xfff03144
fff03164:	8c 1e 00 01 	lbzu    r0,1(r30)
fff03168:	7c 00 07 74 	extsb   r0,r0
fff0316c:	2f 80 00 73 	cmpwi   cr7,r0,115
fff03170:	41 9e 01 7c 	beq-    cr7,0xfff032ec
fff03174:	41 9d 00 70 	bgt-    cr7,0xfff031e4
fff03178:	2f 80 00 25 	cmpwi   cr7,r0,37
fff0317c:	41 9e 01 a8 	beq-    cr7,0xfff03324
fff03180:	2f 80 00 63 	cmpwi   cr7,r0,99
fff03184:	40 9e ff cc 	bne+    cr7,0xfff03150
fff03188:	89 61 00 08 	lbz     r11,8(r1)
fff0318c:	2b 8b 00 08 	cmplwi  cr7,r11,8
fff03190:	40 9c 01 b4 	bge-    cr7,0xfff03344
fff03194:	55 60 10 3a 	rlwinm  r0,r11,2,0,29
fff03198:	81 21 00 10 	lwz     r9,16(r1)
fff0319c:	39 6b 00 01 	addi    r11,r11,1
fff031a0:	99 61 00 08 	stb     r11,8(r1)
fff031a4:	7d 20 4a 14 	add     r9,r0,r9
fff031a8:	88 89 00 03 	lbz     r4,3(r9)
fff031ac:	7f a3 eb 78 	mr      r3,r29
fff031b0:	48 00 06 19 	bl      0xfff037c8
fff031b4:	8c 1e 00 01 	lbzu    r0,1(r30)
fff031b8:	7c 04 07 75 	extsb.  r4,r0
fff031bc:	40 82 ff a0 	bne+    0xfff0315c
fff031c0:	80 01 00 44 	lwz     r0,68(r1)
fff031c4:	38 60 00 00 	li      r3,0
fff031c8:	83 81 00 30 	lwz     r28,48(r1)
fff031cc:	83 a1 00 34 	lwz     r29,52(r1)
fff031d0:	7c 08 03 a6 	mtlr    r0
fff031d4:	83 c1 00 38 	lwz     r30,56(r1)
fff031d8:	83 e1 00 3c 	lwz     r31,60(r1)
fff031dc:	38 21 00 40 	addi    r1,r1,64
fff031e0:	4e 80 00 20 	blr
fff031e4:	2f 80 00 78 	cmpwi   cr7,r0,120
fff031e8:	40 9e ff 68 	bne+    cr7,0xfff03150
fff031ec:	89 61 00 08 	lbz     r11,8(r1)
fff031f0:	2b 8b 00 08 	cmplwi  cr7,r11,8
fff031f4:	40 9c 01 40 	bge-    cr7,0xfff03334
fff031f8:	55 60 10 3a 	rlwinm  r0,r11,2,0,29
fff031fc:	81 21 00 10 	lwz     r9,16(r1)
fff03200:	39 6b 00 01 	addi    r11,r11,1
fff03204:	99 61 00 08 	stb     r11,8(r1)
fff03208:	7d 20 4a 14 	add     r9,r0,r9
fff0320c:	83 e9 00 00 	lwz     r31,0(r9)
fff03210:	57 e9 27 3e 	rlwinm  r9,r31,4,28,31
fff03214:	2b 89 00 09 	cmplwi  cr7,r9,9
fff03218:	38 89 00 30 	addi    r4,r9,48
fff0321c:	40 9d 00 08 	ble-    cr7,0xfff03224
fff03220:	38 89 00 57 	addi    r4,r9,87
fff03224:	7f a3 eb 78 	mr      r3,r29
fff03228:	48 00 05 a1 	bl      0xfff037c8
fff0322c:	57 e9 47 3e 	rlwinm  r9,r31,8,28,31
fff03230:	2b 89 00 09 	cmplwi  cr7,r9,9
fff03234:	38 89 00 30 	addi    r4,r9,48
fff03238:	40 9d 00 08 	ble-    cr7,0xfff03240
fff0323c:	38 89 00 57 	addi    r4,r9,87
fff03240:	7f a3 eb 78 	mr      r3,r29
fff03244:	48 00 05 85 	bl      0xfff037c8
fff03248:	57 e9 67 3e 	rlwinm  r9,r31,12,28,31
fff0324c:	2b 89 00 09 	cmplwi  cr7,r9,9
fff03250:	38 89 00 30 	addi    r4,r9,48
fff03254:	40 9d 00 08 	ble-    cr7,0xfff0325c
fff03258:	38 89 00 57 	addi    r4,r9,87
fff0325c:	7f a3 eb 78 	mr      r3,r29
fff03260:	48 00 05 69 	bl      0xfff037c8
fff03264:	57 e9 87 3e 	rlwinm  r9,r31,16,28,31
fff03268:	2b 89 00 09 	cmplwi  cr7,r9,9
fff0326c:	38 89 00 30 	addi    r4,r9,48
fff03270:	40 9d 00 08 	ble-    cr7,0xfff03278
fff03274:	38 89 00 57 	addi    r4,r9,87
fff03278:	7f a3 eb 78 	mr      r3,r29
fff0327c:	48 00 05 4d 	bl      0xfff037c8
fff03280:	57 e9 a7 3e 	rlwinm  r9,r31,20,28,31
fff03284:	2b 89 00 09 	cmplwi  cr7,r9,9
fff03288:	38 89 00 30 	addi    r4,r9,48
fff0328c:	40 9d 00 08 	ble-    cr7,0xfff03294
fff03290:	38 89 00 57 	addi    r4,r9,87
fff03294:	7f a3 eb 78 	mr      r3,r29
fff03298:	48 00 05 31 	bl      0xfff037c8
fff0329c:	57 e9 c7 3e 	rlwinm  r9,r31,24,28,31
fff032a0:	2b 89 00 09 	cmplwi  cr7,r9,9
fff032a4:	38 89 00 30 	addi    r4,r9,48
fff032a8:	40 9d 00 08 	ble-    cr7,0xfff032b0
fff032ac:	38 89 00 57 	addi    r4,r9,87
fff032b0:	7f a3 eb 78 	mr      r3,r29
fff032b4:	48 00 05 15 	bl      0xfff037c8
fff032b8:	57 e9 e7 3e 	rlwinm  r9,r31,28,28,31
fff032bc:	2b 89 00 09 	cmplwi  cr7,r9,9
fff032c0:	38 89 00 30 	addi    r4,r9,48
fff032c4:	40 9d 00 08 	ble-    cr7,0xfff032cc
fff032c8:	38 89 00 57 	addi    r4,r9,87
fff032cc:	7f a3 eb 78 	mr      r3,r29
fff032d0:	48 00 04 f9 	bl      0xfff037c8
fff032d4:	57 e9 07 3e 	clrlwi  r9,r31,28
fff032d8:	2b 89 00 09 	cmplwi  cr7,r9,9
fff032dc:	38 89 00 57 	addi    r4,r9,87
fff032e0:	41 bd fe 68 	bgt-    cr7,0xfff03148
fff032e4:	38 89 00 30 	addi    r4,r9,48
fff032e8:	4b ff fe 60 	b       0xfff03148
fff032ec:	89 61 00 08 	lbz     r11,8(r1)
fff032f0:	2b 8b 00 08 	cmplwi  cr7,r11,8
fff032f4:	40 9c 00 60 	bge-    cr7,0xfff03354
fff032f8:	55 60 10 3a 	rlwinm  r0,r11,2,0,29
fff032fc:	81 21 00 10 	lwz     r9,16(r1)
fff03300:	39 6b 00 01 	addi    r11,r11,1
fff03304:	99 61 00 08 	stb     r11,8(r1)
fff03308:	7c 80 4a 14 	add     r4,r0,r9
fff0330c:	80 84 00 00 	lwz     r4,0(r4)
fff03310:	2f 84 00 00 	cmpwi   cr7,r4,0
fff03314:	41 9e 00 58 	beq-    cr7,0xfff0336c
fff03318:	7f a3 eb 78 	mr      r3,r29
fff0331c:	48 00 04 cd 	bl      0xfff037e8
fff03320:	4b ff fe 30 	b       0xfff03150
fff03324:	7f a3 eb 78 	mr      r3,r29
fff03328:	38 80 00 25 	li      r4,37
fff0332c:	48 00 04 9d 	bl      0xfff037c8
fff03330:	4b ff fe 20 	b       0xfff03150
fff03334:	81 21 00 0c 	lwz     r9,12(r1)
fff03338:	38 09 00 04 	addi    r0,r9,4
fff0333c:	90 01 00 0c 	stw     r0,12(r1)
fff03340:	4b ff fe cc 	b       0xfff0320c
fff03344:	81 21 00 0c 	lwz     r9,12(r1)
fff03348:	38 09 00 04 	addi    r0,r9,4
fff0334c:	90 01 00 0c 	stw     r0,12(r1)
fff03350:	4b ff fe 58 	b       0xfff031a8
fff03354:	80 81 00 0c 	lwz     r4,12(r1)
fff03358:	38 04 00 04 	addi    r0,r4,4
fff0335c:	90 01 00 0c 	stw     r0,12(r1)
fff03360:	80 84 00 00 	lwz     r4,0(r4)
fff03364:	2f 84 00 00 	cmpwi   cr7,r4,0
fff03368:	40 9e ff b0 	bne+    cr7,0xfff03318
fff0336c:	7f 84 e3 78 	mr      r4,r28
fff03370:	4b ff ff a8 	b       0xfff03318
fff03374:	88 03 00 00 	lbz     r0,0(r3)
fff03378:	7c 00 07 75 	extsb.  r0,r0
fff0337c:	41 82 00 18 	beq-    0xfff03394
fff03380:	3d 20 f6 00 	lis     r9,-2560
fff03384:	90 09 00 54 	stw     r0,84(r9)
fff03388:	8c 03 00 01 	lbzu    r0,1(r3)
fff0338c:	7c 00 07 75 	extsb.  r0,r0
fff03390:	40 82 ff f0 	bne+    0xfff03380
fff03394:	3d 20 f6 00 	lis     r9,-2560
fff03398:	38 00 00 02 	li      r0,2
fff0339c:	90 09 00 58 	stw     r0,88(r9)
fff033a0:	38 60 ff ff 	li      r3,-1
fff033a4:	80 09 00 58 	lwz     r0,88(r9)
fff033a8:	2f 80 00 00 	cmpwi   cr7,r0,0
fff033ac:	4c 9e 00 20 	bnelr   cr7
fff033b0:	34 05 ff ff 	addic.  r0,r5,-1
fff033b4:	39 60 00 00 	li      r11,0
fff033b8:	7c 09 03 a6 	mtctr   r0
fff033bc:	40 81 00 40 	ble-    0xfff033fc
fff033c0:	3d 40 f6 00 	lis     r10,-2560
fff033c4:	7d 24 5a 14 	add     r9,r4,r11
fff033c8:	80 0a 00 54 	lwz     r0,84(r10)
fff033cc:	7c 00 07 74 	extsb   r0,r0
fff033d0:	2f 80 00 00 	cmpwi   cr7,r0,0
fff033d4:	7c 0b 21 ae 	stbx    r0,r11,r4
fff033d8:	38 00 00 00 	li      r0,0
fff033dc:	39 6b 00 01 	addi    r11,r11,1
fff033e0:	98 09 00 01 	stb     r0,1(r9)
fff033e4:	41 9e 00 08 	beq-    cr7,0xfff033ec
fff033e8:	42 00 ff d8 	bdnz+   0xfff033c0
fff033ec:	38 00 00 03 	li      r0,3
fff033f0:	38 60 00 00 	li      r3,0
fff033f4:	90 0a 00 58 	stw     r0,88(r10)
fff033f8:	4e 80 00 20 	blr
fff033fc:	38 00 00 01 	li      r0,1
fff03400:	7c 09 03 a6 	mtctr   r0
fff03404:	4b ff ff bc 	b       0xfff033c0
fff03408:	88 03 00 00 	lbz     r0,0(r3)
fff0340c:	7c 00 07 75 	extsb.  r0,r0
fff03410:	41 82 00 18 	beq-    0xfff03428
fff03414:	3d 20 f6 00 	lis     r9,-2560
fff03418:	90 09 00 54 	stw     r0,84(r9)
fff0341c:	8c 03 00 01 	lbzu    r0,1(r3)
fff03420:	7c 00 07 75 	extsb.  r0,r0
fff03424:	40 82 ff f0 	bne+    0xfff03414
fff03428:	38 00 00 01 	li      r0,1
fff0342c:	3d 20 f6 00 	lis     r9,-2560
fff03430:	38 60 08 00 	li      r3,2048
fff03434:	90 09 00 58 	stw     r0,88(r9)
fff03438:	4e 80 00 20 	blr
fff0343c:	2b 83 00 84 	cmplwi  cr7,r3,132
fff03440:	7c 08 02 a6 	mflr    r0
fff03444:	94 21 ff e0 	stwu    r1,-32(r1)
fff03448:	7c 88 23 78 	mr      r8,r4
fff0344c:	93 a1 00 14 	stw     r29,20(r1)
fff03450:	7c bd 2b 78 	mr      r29,r5
fff03454:	93 c1 00 18 	stw     r30,24(r1)
fff03458:	7c de 33 78 	mr      r30,r6
fff0345c:	93 e1 00 1c 	stw     r31,28(r1)
fff03460:	7c e6 3b 78 	mr      r6,r7
fff03464:	90 01 00 24 	stw     r0,36(r1)
fff03468:	40 9d 00 30 	ble-    cr7,0xfff03498
fff0346c:	3c 80 ff f0 	lis     r4,-16
fff03470:	7c 65 1b 78 	mr      r5,r3
fff03474:	7d 07 43 78 	mr      r7,r8
fff03478:	38 84 42 98 	addi    r4,r4,17048
fff0347c:	7f a8 eb 78 	mr      r8,r29
fff03480:	7f c9 f3 78 	mr      r9,r30
fff03484:	38 60 00 01 	li      r3,1
fff03488:	4c c6 31 82 	crclr   4*cr1+eq
fff0348c:	4b ff fc 4d 	bl      0xfff030d8
fff03490:	38 60 ff ff 	li      r3,-1
fff03494:	48 00 00 2c 	b       0xfff034c0
fff03498:	3d 20 ff f0 	lis     r9,-16
fff0349c:	54 60 10 3a 	rlwinm  r0,r3,2,0,29
fff034a0:	39 29 40 00 	addi    r9,r9,16384
fff034a4:	7d 69 00 2e 	lwzx    r11,r9,r0
fff034a8:	7d 6b 4a 14 	add     r11,r11,r9
fff034ac:	7d 69 03 a6 	mtctr   r11
fff034b0:	4e 80 04 20 	bctr
fff034b4:	3d 20 f6 00 	lis     r9,-2560
fff034b8:	80 09 00 14 	lwz     r0,20(r9)
fff034bc:	54 03 a0 16 	rlwinm  r3,r0,20,0,11
fff034c0:	80 01 00 24 	lwz     r0,36(r1)
fff034c4:	83 a1 00 14 	lwz     r29,20(r1)
fff034c8:	83 c1 00 18 	lwz     r30,24(r1)
fff034cc:	7c 08 03 a6 	mtlr    r0
fff034d0:	83 e1 00 1c 	lwz     r31,28(r1)
fff034d4:	38 21 00 20 	addi    r1,r1,32
fff034d8:	4e 80 00 20 	blr
fff034dc:	3d 20 f6 00 	lis     r9,-2560
fff034e0:	38 00 00 00 	li      r0,0
fff034e4:	90 09 00 4c 	stw     r0,76(r9)
fff034e8:	39 40 00 01 	li      r10,1
fff034ec:	80 09 00 50 	lwz     r0,80(r9)
fff034f0:	39 20 00 3f 	li      r9,63
fff034f4:	7d 29 03 a6 	mtctr   r9
fff034f8:	b0 04 00 00 	sth     r0,0(r4)
fff034fc:	3d 20 f6 00 	lis     r9,-2560
fff03500:	55 4b 08 3c 	rlwinm  r11,r10,1,0,30
fff03504:	91 49 00 4c 	stw     r10,76(r9)
fff03508:	39 4a 00 01 	addi    r10,r10,1
fff0350c:	80 09 00 50 	lwz     r0,80(r9)
fff03510:	7c 08 5b 2e 	sthx    r0,r8,r11
fff03514:	42 00 ff e8 	bdnz+   0xfff034fc
fff03518:	80 01 00 24 	lwz     r0,36(r1)
fff0351c:	38 60 00 00 	li      r3,0
fff03520:	83 a1 00 14 	lwz     r29,20(r1)
fff03524:	83 c1 00 18 	lwz     r30,24(r1)
fff03528:	7c 08 03 a6 	mtlr    r0
fff0352c:	83 e1 00 1c 	lwz     r31,28(r1)
fff03530:	38 21 00 20 	addi    r1,r1,32
fff03534:	4e 80 00 20 	blr
fff03538:	3d 20 f6 00 	lis     r9,-2560
fff0353c:	80 09 00 24 	lwz     r0,36(r9)
fff03540:	7c 03 00 f8 	not     r3,r0
fff03544:	4b ff ff 7c 	b       0xfff034c0
fff03548:	38 60 00 00 	li      r3,0
fff0354c:	54 84 06 3e 	clrlwi  r4,r4,24
fff03550:	48 00 02 79 	bl      0xfff037c8
fff03554:	38 60 00 00 	li      r3,0
fff03558:	4b ff ff 68 	b       0xfff034c0
fff0355c:	7c 9f 23 78 	mr      r31,r4
fff03560:	3c 80 ff f0 	lis     r4,-16
fff03564:	38 84 42 5c 	addi    r4,r4,16988
fff03568:	38 60 00 01 	li      r3,1
fff0356c:	7d 05 43 78 	mr      r5,r8
fff03570:	4c c6 31 82 	crclr   4*cr1+eq
fff03574:	4b ff fb 65 	bl      0xfff030d8
fff03578:	88 1f 00 00 	lbz     r0,0(r31)
fff0357c:	7c 00 07 75 	extsb.  r0,r0
fff03580:	41 82 00 18 	beq-    0xfff03598
fff03584:	3d 20 f6 00 	lis     r9,-2560
fff03588:	90 09 00 54 	stw     r0,84(r9)
fff0358c:	8c 1f 00 01 	lbzu    r0,1(r31)
fff03590:	7c 00 07 75 	extsb.  r0,r0
fff03594:	40 82 ff f0 	bne+    0xfff03584
fff03598:	3d 20 f6 00 	lis     r9,-2560
fff0359c:	38 00 00 02 	li      r0,2
fff035a0:	90 09 00 58 	stw     r0,88(r9)
fff035a4:	38 60 ff ff 	li      r3,-1
fff035a8:	80 09 00 58 	lwz     r0,88(r9)
fff035ac:	2f 80 00 00 	cmpwi   cr7,r0,0
fff035b0:	40 be ff 10 	bne-    cr7,0xfff034c0
fff035b4:	34 1e ff ff 	addic.  r0,r30,-1
fff035b8:	39 40 00 00 	li      r10,0
fff035bc:	7c 09 03 a6 	mtctr   r0
fff035c0:	40 81 01 fc 	ble-    0xfff037bc
fff035c4:	3d 00 f6 00 	lis     r8,-2560
fff035c8:	7d 6a ea 14 	add     r11,r10,r29
fff035cc:	80 08 00 54 	lwz     r0,84(r8)
fff035d0:	39 20 00 00 	li      r9,0
fff035d4:	7c 00 07 74 	extsb   r0,r0
fff035d8:	2f 80 00 00 	cmpwi   cr7,r0,0
fff035dc:	7c 1d 51 ae 	stbx    r0,r29,r10
fff035e0:	99 2b 00 01 	stb     r9,1(r11)
fff035e4:	41 9e 00 0c 	beq-    cr7,0xfff035f0
fff035e8:	39 4a 00 01 	addi    r10,r10,1
fff035ec:	42 00 ff d8 	bdnz+   0xfff035c4
fff035f0:	38 00 00 03 	li      r0,3
fff035f4:	38 60 00 00 	li      r3,0
fff035f8:	90 08 00 58 	stw     r0,88(r8)
fff035fc:	4b ff fe c4 	b       0xfff034c0
fff03600:	7c 9f 23 78 	mr      r31,r4
fff03604:	3c 80 ff f0 	lis     r4,-16
fff03608:	38 84 42 7c 	addi    r4,r4,17020
fff0360c:	38 60 00 01 	li      r3,1
fff03610:	7d 05 43 78 	mr      r5,r8
fff03614:	4c c6 31 82 	crclr   4*cr1+eq
fff03618:	4b ff fa c1 	bl      0xfff030d8
fff0361c:	88 1f 00 00 	lbz     r0,0(r31)
fff03620:	7c 00 07 75 	extsb.  r0,r0
fff03624:	41 82 00 18 	beq-    0xfff0363c
fff03628:	3d 20 f6 00 	lis     r9,-2560
fff0362c:	90 09 00 54 	stw     r0,84(r9)
fff03630:	8c 1f 00 01 	lbzu    r0,1(r31)
fff03634:	7c 00 07 75 	extsb.  r0,r0
fff03638:	40 82 ff f0 	bne+    0xfff03628
fff0363c:	38 00 00 01 	li      r0,1
fff03640:	3d 20 f6 00 	lis     r9,-2560
fff03644:	38 60 08 00 	li      r3,2048
fff03648:	90 09 00 58 	stw     r0,88(r9)
fff0364c:	4b ff fe 74 	b       0xfff034c0
fff03650:	38 00 00 01 	li      r0,1
fff03654:	3d 20 f6 00 	lis     r9,-2560
fff03658:	38 60 00 00 	li      r3,0
fff0365c:	90 09 00 34 	stw     r0,52(r9)
fff03660:	4b ff fe 60 	b       0xfff034c0
fff03664:	3d 20 00 00 	lis     r9,0
fff03668:	80 69 40 24 	lwz     r3,16420(r9)
fff0366c:	4b ff f9 d5 	bl      0xfff03040
fff03670:	38 60 00 01 	li      r3,1
fff03674:	4b ff fe 4c 	b       0xfff034c0
fff03678:	3d 20 00 00 	lis     r9,0
fff0367c:	80 69 40 20 	lwz     r3,16416(r9)
fff03680:	4b ff fe 40 	b       0xfff034c0
fff03684:	3d 20 00 00 	lis     r9,0
fff03688:	80 69 40 20 	lwz     r3,16416(r9)
fff0368c:	4b ff f9 b5 	bl      0xfff03040
fff03690:	38 60 00 01 	li      r3,1
fff03694:	4b ff fe 2c 	b       0xfff034c0
fff03698:	3d 20 00 00 	lis     r9,0
fff0369c:	80 69 40 24 	lwz     r3,16420(r9)
fff036a0:	4b ff fe 20 	b       0xfff034c0
fff036a4:	3d 20 f6 00 	lis     r9,-2560
fff036a8:	80 69 00 24 	lwz     r3,36(r9)
fff036ac:	4b ff fe 14 	b       0xfff034c0
fff036b0:	3d 20 f6 00 	lis     r9,-2560
fff036b4:	80 09 00 20 	lwz     r0,32(r9)
fff036b8:	54 03 a0 16 	rlwinm  r3,r0,20,0,11
fff036bc:	4b ff fe 04 	b       0xfff034c0
fff036c0:	3d 20 f6 00 	lis     r9,-2560
fff036c4:	80 09 00 1c 	lwz     r0,28(r9)
fff036c8:	54 03 50 2a 	rlwinm  r3,r0,10,0,21
fff036cc:	4b ff fd f4 	b       0xfff034c0
fff036d0:	3d 20 00 00 	lis     r9,0
fff036d4:	80 69 40 28 	lwz     r3,16424(r9)
fff036d8:	4b ff fd e8 	b       0xfff034c0
fff036dc:	3d 20 ff f0 	lis     r9,-16
fff036e0:	80 69 43 b8 	lwz     r3,17336(r9)
fff036e4:	4b ff fd dc 	b       0xfff034c0
fff036e8:	3c 80 ff f0 	lis     r4,-16
fff036ec:	38 60 00 00 	li      r3,0
fff036f0:	38 84 42 28 	addi    r4,r4,16936
fff036f4:	3f e0 f6 00 	lis     r31,-2560
fff036f8:	4c c6 31 82 	crclr   4*cr1+eq
fff036fc:	4b ff f9 dd 	bl      0xfff030d8
fff03700:	81 3f 00 30 	lwz     r9,48(r31)
fff03704:	2f 89 00 00 	cmpwi   cr7,r9,0
fff03708:	41 9e 00 9c 	beq-    cr7,0xfff037a4
fff0370c:	3c 80 ff f0 	lis     r4,-16
fff03710:	38 60 00 00 	li      r3,0
fff03714:	38 84 42 44 	addi    r4,r4,16964
fff03718:	4c c6 31 82 	crclr   4*cr1+eq
fff0371c:	4b ff f9 bd 	bl      0xfff030d8
fff03720:	80 7f 00 28 	lwz     r3,40(r31)
fff03724:	4b ff f9 19 	bl      0xfff0303c
fff03728:	38 60 00 00 	li      r3,0
fff0372c:	4b ff fd 94 	b       0xfff034c0
fff03730:	3d 20 f6 00 	lis     r9,-2560
fff03734:	80 69 00 2c 	lwz     r3,44(r9)
fff03738:	4b ff fd 88 	b       0xfff034c0
fff0373c:	38 60 03 80 	li      r3,896
fff03740:	4b ff fd 80 	b       0xfff034c0
fff03744:	38 60 08 00 	li      r3,2048
fff03748:	4b ff fd 78 	b       0xfff034c0
fff0374c:	3d 20 f6 00 	lis     r9,-2560
fff03750:	80 09 00 48 	lwz     r0,72(r9)
fff03754:	70 0b 80 00 	andi.   r11,r0,32768
fff03758:	54 03 04 5e 	rlwinm  r3,r0,0,17,15
fff0375c:	40 a2 fd 64 	bne-    0xfff034c0
fff03760:	81 29 00 44 	lwz     r9,68(r9)
fff03764:	80 69 07 e0 	lwz     r3,2016(r9)
fff03768:	2f 83 00 00 	cmpwi   cr7,r3,0
fff0376c:	40 be fd 54 	bne-    cr7,0xfff034c0
fff03770:	54 03 04 5e 	rlwinm  r3,r0,0,17,15
fff03774:	4b ff fd 4c 	b       0xfff034c0
fff03778:	38 60 0c 00 	li      r3,3072
fff0377c:	4b ff fd 44 	b       0xfff034c0
fff03780:	3d 20 f6 00 	lis     r9,-2560
fff03784:	81 69 00 44 	lwz     r11,68(r9)
fff03788:	38 6b 04 00 	addi    r3,r11,1024
fff0378c:	4b ff fd 34 	b       0xfff034c0
fff03790:	3d 20 f6 00 	lis     r9,-2560
fff03794:	38 60 00 01 	li      r3,1
fff03798:	81 69 00 44 	lwz     r11,68(r9)
fff0379c:	90 8b 07 e0 	stw     r4,2016(r11)
fff037a0:	4b ff fd 20 	b       0xfff034c0
fff037a4:	38 00 00 01 	li      r0,1
fff037a8:	7d 29 03 a6 	mtctr   r9
fff037ac:	90 1f 00 34 	stw     r0,52(r31)
fff037b0:	4e 80 04 21 	bctrl
fff037b4:	38 60 00 00 	li      r3,0
fff037b8:	4b ff fd 08 	b       0xfff034c0
fff037bc:	39 20 00 01 	li      r9,1
fff037c0:	7d 29 03 a6 	mtctr   r9
fff037c4:	4b ff fe 00 	b       0xfff035c4
fff037c8:	2f 83 00 00 	cmpwi   cr7,r3,0
fff037cc:	40 9e 00 10 	bne-    cr7,0xfff037dc
fff037d0:	3d 20 f6 00 	lis     r9,-2560
fff037d4:	90 89 00 40 	stw     r4,64(r9)
fff037d8:	4e 80 00 20 	blr
fff037dc:	3d 20 f6 00 	lis     r9,-2560
fff037e0:	90 89 00 3c 	stw     r4,60(r9)
fff037e4:	4e 80 00 20 	blr
fff037e8:	88 04 00 00 	lbz     r0,0(r4)
fff037ec:	2f 80 00 00 	cmpwi   cr7,r0,0
fff037f0:	4d 9e 00 20 	beqlr   cr7
fff037f4:	2f 83 00 00 	cmpwi   cr7,r3,0
fff037f8:	41 9e 00 30 	beq-    cr7,0xfff03828
fff037fc:	3d 20 f6 00 	lis     r9,-2560
fff03800:	90 09 00 3c 	stw     r0,60(r9)
fff03804:	8c 04 00 01 	lbzu    r0,1(r4)
fff03808:	2f 80 00 00 	cmpwi   cr7,r0,0
fff0380c:	4d 9e 00 20 	beqlr   cr7
fff03810:	3d 20 f6 00 	lis     r9,-2560
fff03814:	90 09 00 3c 	stw     r0,60(r9)
fff03818:	8c 04 00 01 	lbzu    r0,1(r4)
fff0381c:	2f 80 00 00 	cmpwi   cr7,r0,0
fff03820:	40 9e ff dc 	bne+    cr7,0xfff037fc
fff03824:	4e 80 00 20 	blr
fff03828:	3d 20 f6 00 	lis     r9,-2560
fff0382c:	90 09 00 40 	stw     r0,64(r9)
fff03830:	8c 04 00 01 	lbzu    r0,1(r4)
fff03834:	2f 80 00 00 	cmpwi   cr7,r0,0
fff03838:	40 9e ff f0 	bne+    cr7,0xfff03828
fff0383c:	4e 80 00 20 	blr
fff03840:	7c 08 02 a6 	mflr    r0
fff03844:	94 21 ff f0 	stwu    r1,-16(r1)
fff03848:	90 01 00 14 	stw     r0,20(r1)
fff0384c:	38 00 00 00 	li      r0,0
fff03850:	7c 09 03 a6 	mtctr   r0
fff03854:	4e 80 04 21 	bctrl
fff03858:	80 01 00 14 	lwz     r0,20(r1)
fff0385c:	38 21 00 10 	addi    r1,r1,16
fff03860:	7c 08 03 a6 	mtlr    r0
fff03864:	4e 80 00 20 	blr
fff03868:	7c 08 02 a6 	mflr    r0
fff0386c:	94 21 ff e0 	stwu    r1,-32(r1)
fff03870:	3c 80 ff f0 	lis     r4,-16
fff03874:	38 60 00 00 	li      r3,0
fff03878:	38 84 42 f8 	addi    r4,r4,17144
fff0387c:	93 e1 00 1c 	stw     r31,28(r1)
fff03880:	90 01 00 24 	stw     r0,36(r1)
fff03884:	3f e0 f6 00 	lis     r31,-2560
fff03888:	93 a1 00 14 	stw     r29,20(r1)
fff0388c:	4c c6 31 82 	crclr   4*cr1+eq
fff03890:	4b ff f8 49 	bl      0xfff030d8
fff03894:	3c 80 ff f0 	lis     r4,-16
fff03898:	38 60 00 01 	li      r3,1
fff0389c:	38 84 43 18 	addi    r4,r4,17176
fff038a0:	4c c6 31 82 	crclr   4*cr1+eq
fff038a4:	4b ff f8 35 	bl      0xfff030d8
fff038a8:	81 3f 00 00 	lwz     r9,0(r31)
fff038ac:	6d 20 e1 6b 	xoris   r0,r9,57707
fff038b0:	2f 80 b3 df 	cmpwi   cr7,r0,-19489
fff038b4:	41 9e 00 24 	beq-    cr7,0xfff038d8
fff038b8:	3c 80 ff f0 	lis     r4,-16
fff038bc:	38 60 00 00 	li      r3,0
fff038c0:	38 84 43 30 	addi    r4,r4,17200
fff038c4:	4c c6 31 82 	crclr   4*cr1+eq
fff038c8:	4b ff f8 11 	bl      0xfff030d8
fff038cc:	38 00 00 00 	li      r0,0
fff038d0:	7c 09 03 a6 	mtctr   r0
fff038d4:	4e 80 04 21 	bctrl
fff038d8:	83 bf 00 44 	lwz     r29,68(r31)
fff038dc:	3c 80 ff f0 	lis     r4,-16
fff038e0:	3d 20 00 00 	lis     r9,0
fff038e4:	38 84 43 74 	addi    r4,r4,17268
fff038e8:	38 1d 00 80 	addi    r0,r29,128
fff038ec:	7c 03 03 78 	mr      r3,r0
fff038f0:	90 09 40 24 	stw     r0,16420(r9)
fff038f4:	4b ff f7 4d 	bl      0xfff03040
fff038f8:	38 1d 02 00 	addi    r0,r29,512
fff038fc:	3c 80 ff f0 	lis     r4,-16
fff03900:	3d 20 00 00 	lis     r9,0
fff03904:	7c 03 03 78 	mr      r3,r0
fff03908:	38 84 43 78 	addi    r4,r4,17272
fff0390c:	90 09 40 20 	stw     r0,16416(r9)
fff03910:	3b bd 07 80 	addi    r29,r29,1920
fff03914:	4b ff f7 2d 	bl      0xfff03040
fff03918:	3d 20 00 00 	lis     r9,0
fff0391c:	3d 60 ff f0 	lis     r11,-16
fff03920:	93 a9 40 28 	stw     r29,16424(r9)
fff03924:	3b eb 43 80 	addi    r31,r11,17280
fff03928:	3f a0 f6 00 	lis     r29,-2560
fff0392c:	7f e4 fb 78 	mr      r4,r31
fff03930:	80 bd 00 28 	lwz     r5,40(r29)
fff03934:	38 60 00 00 	li      r3,0
fff03938:	4c c6 31 82 	crclr   4*cr1+eq
fff0393c:	4b ff f7 9d 	bl      0xfff030d8
fff03940:	80 7d 00 28 	lwz     r3,40(r29)
fff03944:	4b ff f6 dd 	bl      0xfff03020
fff03948:	80 1d 00 30 	lwz     r0,48(r29)
fff0394c:	2f 80 00 00 	cmpwi   cr7,r0,0
fff03950:	40 9e ff d8 	bne+    cr7,0xfff03928
fff03954:	3c 80 ff f0 	lis     r4,-16
fff03958:	38 60 00 00 	li      r3,0
fff0395c:	38 84 43 a0 	addi    r4,r4,17312
fff03960:	4c c6 31 82 	crclr   4*cr1+eq
fff03964:	4b ff f7 75 	bl      0xfff030d8
fff03968:	38 00 00 01 	li      r0,1
fff0396c:	90 1d 00 34 	stw     r0,52(r29)
fff03970:	80 01 00 24 	lwz     r0,36(r1)
fff03974:	83 a1 00 14 	lwz     r29,20(r1)
fff03978:	83 e1 00 1c 	lwz     r31,28(r1)
fff0397c:	7c 08 03 a6 	mtlr    r0
fff03980:	38 21 00 20 	addi    r1,r1,32
fff03984:	4e 80 00 20 	blr
	...
